target datalayout = "e-m:e-p270:32:32-p271:32:32-p272:64:64-i64:64-i128:128-f80:128-n8:16:32:64-S128"
target triple = "x86_64-pc-linux-gnu"

%struct.fpa2bv_rewriter_cfg = type <{ ptr, %class.ref_vector, ptr, %class.ref_vector.0, i64, i32, [4 x i8] }>
%class.ref_vector = type { %class.ref_vector_core }
%class.ref_vector_core = type { %class.ref_manager_wrapper, %class.ptr_vector }
%class.ref_manager_wrapper = type { ptr }
%class.ptr_vector = type { %class.vector }
%class.vector = type { ptr }
%class.ref_vector.0 = type { %class.ref_vector_core.1 }
%class.ref_vector_core.1 = type { %class.ref_manager_wrapper.2, %class.ptr_vector.3 }
%class.ref_manager_wrapper.2 = type { ptr }
%class.ptr_vector.3 = type { %class.vector.4 }
%class.vector.4 = type { ptr }
%class.svector.24 = type { %class.vector.25 }
%class.vector.25 = type { ptr }
%class.obj_map.28 = type { %class.core_hashtable.29 }
%class.core_hashtable.29 = type <{ ptr, i32, i32, i32, [4 x i8] }>
%struct.fpa2bv_rewriter_params = type { ptr, %class.params_ref }
%class.params_ref = type { ptr }
%class.fpa2bv_converter = type { ptr, ptr, %class.bool_rewriter, %class.bv_util, %class.arith_util, %"class.datatype::util", %class.seq_util, %class.fpa_util, ptr, ptr, ptr, i8, [7 x i8], %class.obj_map.34, %class.obj_map.34, %class.obj_map.28, %class.obj_map.39, %class.ref_vector }
%class.bool_rewriter = type { ptr, i8, i8, i8, i8, i8, i8, i32, i8, i32, i32, i8, %class.ptr_vector, %class.ptr_vector, %class.svector.24, %class.svector.24 }
%class.bv_util = type { %class.bv_recognizers, ptr, ptr }
%class.bv_recognizers = type { i32 }
%class.arith_util = type { ptr, ptr }
%"class.datatype::util" = type { ptr, i32, ptr }
%class.seq_util = type { ptr, ptr, ptr, i32, [4 x i8], %"class.seq_util::str", %"class.seq_util::rex" }
%"class.seq_util::str" = type <{ ptr, ptr, i32, [4 x i8] }>
%"class.seq_util::rex" = type { ptr, ptr, i32, %class.vector.33, %class.ref_vector, %"struct.seq_util::rex::info", %"struct.seq_util::rex::info" }
%class.vector.33 = type { ptr }
%"struct.seq_util::rex::info" = type { i32, i8, i32, i32 }
%class.fpa_util = type { ptr, ptr, i32, %class.arith_util, %class.bv_util }
%class.obj_map.34 = type { %class.core_hashtable.35 }
%class.core_hashtable.35 = type <{ ptr, i32, i32, i32, [4 x i8] }>
%class.obj_map.39 = type { %class.core_hashtable.40 }
%class.core_hashtable.40 = type <{ ptr, i32, i32, i32, [4 x i8] }>

@.str.1 = private unnamed_addr constant [11 x i8] c"max_memory\00", align 1
@.str.2 = private unnamed_addr constant [10 x i8] c"max_steps\00", align 1
@.str.9 = private unnamed_addr constant [9 x i8] c"rewriter\00", align 1
@.str.10 = private unnamed_addr constant [18 x i8] c"hi_fp_unspecified\00", align 1

; Function Attrs: inlinehint mustprogress nounwind uwtable
define linkonce_odr hidden void @_ZN22fpa2bv_rewriter_paramsD2Ev(ptr noundef nonnull align 8 dereferenceable(16) %0) unnamed_addr #7 comdat align 2 {
  %2 = alloca ptr, align 8
  store ptr %0, ptr %2, align 8, !tbaa !48
  %3 = load ptr, ptr %2, align 8
  %4 = getelementptr inbounds nuw %struct.fpa2bv_rewriter_params, ptr %3, i32 0, i32 1
  call void @_ZN10params_refD1Ev(ptr noundef nonnull align 8 dereferenceable(8) %4) #3
  ret void
}

; Function Attrs: mustprogress nounwind uwtable
define linkonce_odr hidden void @_ZN16fpa2bv_converter21set_unspecified_fp_hiEb(ptr noundef nonnull align 8 dereferenceable(496) %0, i1 noundef zeroext %1) #6 comdat align 2 {
  %3 = alloca ptr, align 8
  %4 = alloca i8, align 1
  store ptr %0, ptr %3, align 8, !tbaa !10
  %5 = zext i1 %1 to i8
  store i8 %5, ptr %4, align 1, !tbaa !43
  %6 = load ptr, ptr %3, align 8
  %7 = load i8, ptr %4, align 1, !tbaa !43, !range !46, !noundef !47
  %8 = trunc i8 %7 to i1
  %9 = getelementptr inbounds nuw %class.fpa2bv_converter, ptr %6, i32 0, i32 11
  %10 = zext i1 %8 to i8
  store i8 %10, ptr %9, align 8, !tbaa !54
  ret void
}

; Function Attrs: mustprogress uwtable
define linkonce_odr hidden noundef zeroext i1 @_ZNK22fpa2bv_rewriter_params17hi_fp_unspecifiedEv(ptr noundef nonnull align 8 dereferenceable(16) %0) #4 comdat align 2 {
  %2 = alloca ptr, align 8
  store ptr %0, ptr %2, align 8, !tbaa !48
  %3 = load ptr, ptr %2, align 8
  %4 = getelementptr inbounds nuw %struct.fpa2bv_rewriter_params, ptr %3, i32 0, i32 0
  %5 = load ptr, ptr %4, align 8, !tbaa !50
  %6 = getelementptr inbounds nuw %struct.fpa2bv_rewriter_params, ptr %3, i32 0, i32 1
  %7 = call noundef zeroext i1 @_ZNK10params_ref8get_boolEPKcRKS_b(ptr noundef nonnull align 8 dereferenceable(8) %5, ptr noundef @.str.10, ptr noundef nonnull align 8 dereferenceable(8) %6, i1 noundef zeroext false)
  ret i1 %7
}

; Function Attrs: mustprogress uwtable
define linkonce_odr hidden void @_ZN22fpa2bv_rewriter_paramsC2ERK10params_ref(ptr noundef nonnull align 8 dereferenceable(16) %0, ptr noundef nonnull align 8 dereferenceable(8) %1) unnamed_addr #4 comdat align 2 {
  %3 = alloca ptr, align 8
  %4 = alloca ptr, align 8
  store ptr %0, ptr %3, align 8, !tbaa !48
  store ptr %1, ptr %4, align 8, !tbaa !12
  %5 = load ptr, ptr %3, align 8
  %6 = getelementptr inbounds nuw %struct.fpa2bv_rewriter_params, ptr %5, i32 0, i32 0
  %7 = load ptr, ptr %4, align 8, !tbaa !12
  store ptr %7, ptr %6, align 8, !tbaa !12
  %8 = getelementptr inbounds nuw %struct.fpa2bv_rewriter_params, ptr %5, i32 0, i32 1
  call void @_ZN7gparams10get_moduleEPKc(ptr dead_on_unwind writable sret(%class.params_ref) align 8 %8, ptr noundef @.str.9)
  ret void
}

; Function Attrs: mustprogress uwtable
define hidden void @_ZN19fpa2bv_rewriter_cfg17updt_local_paramsERK10params_ref(ptr noundef nonnull align 8 dereferenceable(60) %0, ptr noundef nonnull align 8 dereferenceable(8) %1) #4 align 2 personality ptr @__gxx_personality_v0 {
  %3 = alloca ptr, align 8
  %4 = alloca ptr, align 8
  %5 = alloca %struct.fpa2bv_rewriter_params, align 8
  %6 = alloca i8, align 1
  %7 = alloca ptr, align 8
  %8 = alloca i32, align 4
  store ptr %0, ptr %3, align 8, !tbaa !3
  store ptr %1, ptr %4, align 8, !tbaa !12
  %9 = load ptr, ptr %3, align 8
  call void @llvm.lifetime.start.p0(i64 16, ptr %5) #3
  %10 = load ptr, ptr %4, align 8, !tbaa !12
  call void @_ZN22fpa2bv_rewriter_paramsC2ERK10params_ref(ptr noundef nonnull align 8 dereferenceable(16) %5, ptr noundef nonnull align 8 dereferenceable(8) %10)
  call void @llvm.lifetime.start.p0(i64 1, ptr %6) #3
  %11 = invoke noundef zeroext i1 @_ZNK22fpa2bv_rewriter_params17hi_fp_unspecifiedEv(ptr noundef nonnull align 8 dereferenceable(16) %5)
          to label %12 unwind label %19

12:                                               ; preds = %2
  %13 = zext i1 %11 to i8
  store i8 %13, ptr %6, align 1, !tbaa !43
  %14 = getelementptr inbounds nuw %struct.fpa2bv_rewriter_cfg, ptr %9, i32 0, i32 2
  %15 = load ptr, ptr %14, align 8, !tbaa !45
  %16 = load i8, ptr %6, align 1, !tbaa !43, !range !46, !noundef !47
  %17 = trunc i8 %16 to i1
  invoke void @_ZN16fpa2bv_converter21set_unspecified_fp_hiEb(ptr noundef nonnull align 8 dereferenceable(496) %15, i1 noundef zeroext %17)
          to label %18 unwind label %19

18:                                               ; preds = %12
  call void @llvm.lifetime.end.p0(i64 1, ptr %6) #3
  call void @_ZN22fpa2bv_rewriter_paramsD2Ev(ptr noundef nonnull align 8 dereferenceable(16) %5) #3
  call void @llvm.lifetime.end.p0(i64 16, ptr %5) #3
  ret void

19:                                               ; preds = %12, %2
  %20 = landingpad { ptr, i32 }
          cleanup
  %21 = extractvalue { ptr, i32 } %20, 0
  store ptr %21, ptr %7, align 8
  %22 = extractvalue { ptr, i32 } %20, 1
  store i32 %22, ptr %8, align 4
  call void @llvm.lifetime.end.p0(i64 1, ptr %6) #3
  call void @_ZN22fpa2bv_rewriter_paramsD2Ev(ptr noundef nonnull align 8 dereferenceable(16) %5) #3
  call void @llvm.lifetime.end.p0(i64 16, ptr %5) #3
  br label %23

23:                                               ; preds = %19
  %24 = load ptr, ptr %7, align 8
  %25 = load i32, ptr %8, align 4
  %26 = insertvalue { ptr, i32 } poison, ptr %24, 0
  %27 = insertvalue { ptr, i32 } %26, i32 %25, 1
  resume { ptr, i32 } %27
}

; Function Attrs: inlinehint mustprogress nounwind uwtable
define linkonce_odr hidden noundef i64 @_Z18megabytes_to_bytesj(i32 noundef %0) #7 comdat {
  %2 = alloca i64, align 8
  %3 = alloca i32, align 4
  %4 = alloca i64, align 8
  %5 = alloca i64, align 8
  store i32 %0, ptr %3, align 4, !tbaa !90
  %6 = load i32, ptr %3, align 4, !tbaa !90
  %7 = icmp eq i32 %6, -1
  br i1 %7, label %8, label %9

8:                                                ; preds = %1
  store i64 -1, ptr %2, align 8
  br label %21

9:                                                ; preds = %1
  call void @llvm.lifetime.start.p0(i64 8, ptr %4) #3
  %10 = load i32, ptr %3, align 4, !tbaa !90
  %11 = zext i32 %10 to i64
  %12 = mul i64 %11, 1024
  %13 = mul i64 %12, 1024
  store i64 %13, ptr %4, align 8, !tbaa !91
  call void @llvm.lifetime.start.p0(i64 8, ptr %5) #3
  %14 = load i64, ptr %4, align 8, !tbaa !91
  store i64 %14, ptr %5, align 8, !tbaa !92
  %15 = load i64, ptr %5, align 8, !tbaa !92
  %16 = load i64, ptr %4, align 8, !tbaa !91
  %17 = icmp ne i64 %15, %16
  br i1 %17, label %18, label %19

18:                                               ; preds = %9
  store i64 -1, ptr %5, align 8, !tbaa !92
  br label %19

19:                                               ; preds = %18, %9
  %20 = load i64, ptr %5, align 8, !tbaa !92
  store i64 %20, ptr %2, align 8
  call void @llvm.lifetime.end.p0(i64 8, ptr %5) #3
  call void @llvm.lifetime.end.p0(i64 8, ptr %4) #3
  br label %21

21:                                               ; preds = %19, %8
  %22 = load i64, ptr %2, align 8
  ret i64 %22
}

; Function Attrs: mustprogress uwtable
define hidden void @_ZN19fpa2bv_rewriter_cfg11updt_paramsERK10params_ref(ptr noundef nonnull align 8 dereferenceable(60) %0, ptr noundef nonnull align 8 dereferenceable(8) %1) #4 align 2 {
  %3 = alloca ptr, align 8
  %4 = alloca ptr, align 8
  store ptr %0, ptr %3, align 8, !tbaa !3
  store ptr %1, ptr %4, align 8, !tbaa !12
  %5 = load ptr, ptr %3, align 8
  %6 = load ptr, ptr %4, align 8, !tbaa !12
  %7 = call noundef i32 @_ZNK10params_ref8get_uintEPKcj(ptr noundef nonnull align 8 dereferenceable(8) %6, ptr noundef @.str.1, i32 noundef -1)
  %8 = call noundef i64 @_Z18megabytes_to_bytesj(i32 noundef %7)
  %9 = getelementptr inbounds nuw %struct.fpa2bv_rewriter_cfg, ptr %5, i32 0, i32 4
  store i64 %8, ptr %9, align 8, !tbaa !35
  %10 = load ptr, ptr %4, align 8, !tbaa !12
  %11 = call noundef i32 @_ZNK10params_ref8get_uintEPKcj(ptr noundef nonnull align 8 dereferenceable(8) %10, ptr noundef @.str.2, i32 noundef -1)
  %12 = getelementptr inbounds nuw %struct.fpa2bv_rewriter_cfg, ptr %5, i32 0, i32 5
  store i32 %11, ptr %12, align 8, !tbaa !36
  %13 = load ptr, ptr %4, align 8, !tbaa !12
  call void @_ZN19fpa2bv_rewriter_cfg17updt_local_paramsERK10params_ref(ptr noundef nonnull align 8 dereferenceable(60) %5, ptr noundef nonnull align 8 dereferenceable(8) %13)
  ret void
}