; Function Attrs: mustprogress uwtable
define hidden void @_ZN19fpa2bv_rewriter_cfg11updt_paramsERK10params_ref(ptr noundef nonnull align 8 captures(none) dereferenceable(60) initializes((48, 60)) %0, ptr noundef nonnull align 8 dereferenceable(8) %1) local_unnamed_addr #3 align 2 personality ptr @__gxx_personality_v0 {
  %3 = alloca %struct.fpa2bv_rewriter_params, align 8
  %4 = tail call noundef i32 @_ZNK10params_ref8get_uintEPKcj(ptr noundef nonnull align 8 dereferenceable(8) %1, ptr noundef nonnull @.str.1, i32 noundef -1)
  %5 = icmp eq i32 %4, -1
  %6 = zext i32 %4 to i64
  %7 = shl nuw nsw i64 %6, 20
  %.0.i = select i1 %5, i64 -1, i64 %7
  %8 = getelementptr inbounds nuw i8, ptr %0, i64 48
  store i64 %.0.i, ptr %8, align 8, !tbaa !29
  %9 = tail call noundef i32 @_ZNK10params_ref8get_uintEPKcj(ptr noundef nonnull align 8 dereferenceable(8) %1, ptr noundef nonnull @.str.2, i32 noundef -1)
  %10 = getelementptr inbounds nuw i8, ptr %0, i64 56
  store i32 %9, ptr %10, align 8, !tbaa !30
  call void @llvm.lifetime.start.p0(i64 16, ptr nonnull %3) #21
  store ptr %1, ptr %3, align 8, !tbaa !31
  %11 = getelementptr inbounds nuw i8, ptr %3, i64 8
  call void @_ZN7gparams10get_moduleEPKc(ptr dead_on_unwind nonnull writable sret(%class.params_ref) align 8 %11, ptr noundef nonnull @.str.9)
  %12 = load ptr, ptr %3, align 8, !tbaa !33
  %13 = invoke noundef zeroext i1 @_ZNK10params_ref8get_boolEPKcRKS_b(ptr noundef nonnull align 8 dereferenceable(8) %12, ptr noundef nonnull @.str.10, ptr noundef nonnull align 8 dereferenceable(8) %11, i1 noundef zeroext false)
          to label %_ZN19fpa2bv_rewriter_cfg17updt_local_paramsERK10params_ref.exit unwind label %14

14:                                               ; preds = %2
  %15 = landingpad { ptr, i32 }
          cleanup
  call void @_ZN10params_refD1Ev(ptr noundef nonnull align 8 dereferenceable(8) %11) #21
  call void @llvm.lifetime.end.p0(i64 16, ptr nonnull %3) #21
  resume { ptr, i32 } %15

_ZN19fpa2bv_rewriter_cfg17updt_local_paramsERK10params_ref.exit: ; preds = %2
  %16 = getelementptr inbounds nuw i8, ptr %0, i64 24
  %17 = load ptr, ptr %16, align 8, !tbaa !37
  %18 = zext i1 %13 to i8
  %19 = getelementptr inbounds nuw i8, ptr %17, i64 376
  store i8 %18, ptr %19, align 8, !tbaa !38
  call void @_ZN10params_refD1Ev(ptr noundef nonnull align 8 dereferenceable(8) %11) #21
  call void @llvm.lifetime.end.p0(i64 16, ptr nonnull %3) #21
  ret void
}